target datalayout = "e-m:e-p270:32:32-p271:32:32-p272:64:64-i64:64-i128:128-f80:128-n8:16:32:64-S128"
target triple = "x86_64-pc-linux-gnu"

%struct.SDL_VideoDevice = type { ptr, ptr, ptr, ptr, ptr, ptr, ptr, ptr, ptr, ptr, ptr, ptr, ptr, ptr, ptr, ptr, ptr, ptr, ptr, ptr, ptr, ptr, ptr, ptr, ptr, ptr, ptr, ptr, ptr, ptr, ptr, ptr, ptr, ptr, ptr, ptr, ptr, ptr, ptr, ptr, ptr, ptr, ptr, ptr, ptr, ptr, ptr, ptr, ptr, ptr, ptr, ptr, ptr, ptr, ptr, ptr, ptr, ptr, ptr, ptr, ptr, ptr, ptr, ptr, ptr, ptr, ptr, ptr, ptr, ptr, ptr, ptr, ptr, ptr, ptr, ptr, ptr, ptr, ptr, ptr, ptr, ptr, ptr, ptr, ptr, ptr, ptr, ptr, ptr, ptr, ptr, ptr, ptr, ptr, ptr, ptr, ptr, i64, i8, i8, i8, ptr, i32, ptr, %struct.SDL_Rect, ptr, ptr, i32, ptr, ptr, ptr, ptr, i64, ptr, i8, i32, i32, %struct.anon, ptr, ptr, ptr, ptr, ptr, ptr, %struct.SDL_AtomicInt, %struct.SDL_AtomicInt, i8, %struct.anon.0, ptr, ptr, ptr, ptr, ptr }
%struct.SDL_Rect = type { i32, i32, i32, i32 }
%struct.anon = type { i32, i32, i32, i32, i32, i32, i32, i32, i32, i32, i32, i32, i32, i32, i32, i32, i32, i32, i32, i32, i32, i32, i32, i32, i32, i32, i32, i32, i32, [256 x i8], ptr }
%struct.SDL_AtomicInt = type { i32 }
%struct.anon.0 = type { ptr, ptr, i32, [256 x i8], ptr }
%struct.SDL_EGL_VideoData = type { ptr, ptr, ptr, ptr, i32, i32, i32, i32, i32, i8, i32, ptr, ptr, ptr, ptr, ptr, ptr, ptr, ptr, ptr, ptr, ptr, ptr, ptr, ptr, ptr, ptr, ptr, ptr, ptr, ptr, ptr, ptr, ptr, ptr, ptr, ptr, ptr }

@.str.10 = private unnamed_addr constant [25 x i8] c"Could not initialize EGL\00", align 1
@.str.11 = private unnamed_addr constant [61 x i8] c"SDL_EGL_LoadLibraryOnly() has not been called or has failed.\00", align 1
@.str.12 = private unnamed_addr constant [85 x i8] c"eglQueryDevicesEXT is missing (EXT_device_enumeration not supported by the drivers?)\00", align 1
@.str.13 = private unnamed_addr constant [86 x i8] c"eglGetPlatformDisplayEXT is missing (EXT_platform_base not supported by the drivers?)\00", align 1
@.str.14 = private unnamed_addr constant [28 x i8] c"eglQueryDevicesEXT() failed\00", align 1
@.str.15 = private unnamed_addr constant [20 x i8] c"SDL_HINT_EGL_DEVICE\00", align 1
@.str.16 = private unnamed_addr constant [33 x i8] c"Invalid EGL device is requested.\00", align 1
@.str.17 = private unnamed_addr constant [35 x i8] c"eglGetPlatformDisplayEXT() failed.\00", align 1
@.str.18 = private unnamed_addr constant [48 x i8] c"Could not find a valid EGL device to initialize\00", align 1
@.str.111 = private unnamed_addr constant [6 x i8] c"%d.%d\00", align 1
@.str.112 = private unnamed_addr constant [39 x i8] c"Could not parse EGL version string: %s\00", align 1

; Function Attrs: nounwind uwtable
define internal void @SDL_EGL_GetVersion(ptr noundef %0) #0 {
  %2 = alloca ptr, align 8
  %3 = alloca ptr, align 8
  %4 = alloca i32, align 4
  %5 = alloca i32, align 4
  store ptr %0, ptr %2, align 8
  %6 = load ptr, ptr %2, align 8
  %7 = getelementptr inbounds nuw %struct.SDL_VideoDevice, ptr %6, i32 0, i32 130
  %8 = load ptr, ptr %7, align 8
  %9 = getelementptr inbounds nuw %struct.SDL_EGL_VideoData, ptr %8, i32 0, i32 24
  %10 = load ptr, ptr %9, align 8
  %11 = icmp ne ptr %10, null
  br i1 %11, label %12, label %45

12:                                               ; preds = %1
  call void @llvm.lifetime.start.p0(i64 8, ptr %3) #5
  %13 = load ptr, ptr %2, align 8
  %14 = getelementptr inbounds nuw %struct.SDL_VideoDevice, ptr %13, i32 0, i32 130
  %15 = load ptr, ptr %14, align 8
  %16 = getelementptr inbounds nuw %struct.SDL_EGL_VideoData, ptr %15, i32 0, i32 24
  %17 = load ptr, ptr %16, align 8
  %18 = load ptr, ptr %2, align 8
  %19 = getelementptr inbounds nuw %struct.SDL_VideoDevice, ptr %18, i32 0, i32 130
  %20 = load ptr, ptr %19, align 8
  %21 = getelementptr inbounds nuw %struct.SDL_EGL_VideoData, ptr %20, i32 0, i32 2
  %22 = load ptr, ptr %21, align 8
  %23 = call ptr %17(ptr noundef %22, i32 noundef 12372)
  store ptr %23, ptr %3, align 8
  %24 = load ptr, ptr %3, align 8
  %25 = icmp ne ptr %24, null
  br i1 %25, label %26, label %44

26:                                               ; preds = %12
  call void @llvm.lifetime.start.p0(i64 4, ptr %4) #5
  store i32 0, ptr %4, align 4
  call void @llvm.lifetime.start.p0(i64 4, ptr %5) #5
  store i32 0, ptr %5, align 4
  %27 = load ptr, ptr %3, align 8
  %28 = call i32 (ptr, ptr, ...) @SDL_sscanf_REAL(ptr noundef %27, ptr noundef @.str.111, ptr noundef %4, ptr noundef %5)
  %29 = icmp eq i32 %28, 2
  br i1 %29, label %30, label %41

30:                                               ; preds = %26
  %31 = load i32, ptr %4, align 4
  %32 = load ptr, ptr %2, align 8
  %33 = getelementptr inbounds nuw %struct.SDL_VideoDevice, ptr %32, i32 0, i32 130
  %34 = load ptr, ptr %33, align 8
  %35 = getelementptr inbounds nuw %struct.SDL_EGL_VideoData, ptr %34, i32 0, i32 6
  store i32 %31, ptr %35, align 8
  %36 = load i32, ptr %5, align 4
  %37 = load ptr, ptr %2, align 8
  %38 = getelementptr inbounds nuw %struct.SDL_VideoDevice, ptr %37, i32 0, i32 130
  %39 = load ptr, ptr %38, align 8
  %40 = getelementptr inbounds nuw %struct.SDL_EGL_VideoData, ptr %39, i32 0, i32 7
  store i32 %36, ptr %40, align 4
  br label %43

41:                                               ; preds = %26
  %42 = load ptr, ptr %3, align 8
  call void (i32, ptr, ...) @SDL_LogWarn_REAL(i32 noundef 5, ptr noundef @.str.112, ptr noundef %42)
  br label %43

43:                                               ; preds = %41, %30
  call void @llvm.lifetime.end.p0(i64 4, ptr %5) #5
  call void @llvm.lifetime.end.p0(i64 4, ptr %4) #5
  br label %44

44:                                               ; preds = %43, %12
  call void @llvm.lifetime.end.p0(i64 8, ptr %3) #5
  br label %45

45:                                               ; preds = %44, %1
  ret void
}

; Function Attrs: nounwind uwtable
define hidden zeroext i1 @SDL_EGL_InitializeOffscreen(ptr noundef %0, i32 noundef %1) #0 {
  %3 = alloca i1, align 1
  %4 = alloca ptr, align 8
  %5 = alloca i32, align 4
  %6 = alloca [8 x ptr], align 16
  %7 = alloca i32, align 4
  %8 = alloca ptr, align 8
  %9 = alloca i32, align 4
  %10 = alloca i32, align 4
  %11 = alloca i8, align 1
  %12 = alloca ptr, align 8
  store ptr %0, ptr %4, align 8
  store i32 %1, ptr %5, align 4
  call void @llvm.lifetime.start.p0(i64 64, ptr %6) #5
  call void @llvm.lifetime.start.p0(i64 4, ptr %7) #5
  store i32 0, ptr %7, align 4
  call void @llvm.lifetime.start.p0(i64 8, ptr %8) #5
  %13 = load ptr, ptr %4, align 8
  %14 = getelementptr inbounds nuw %struct.SDL_VideoDevice, ptr %13, i32 0, i32 117
  %15 = getelementptr inbounds nuw %struct.anon, ptr %14, i32 0, i32 28
  %16 = load i32, ptr %15, align 8
  %17 = icmp sle i32 %16, 0
  br i1 %17, label %18, label %20

18:                                               ; preds = %2
  %19 = call zeroext i1 (ptr, ...) @SDL_SetError_REAL(ptr noundef @.str.11)
  store i1 %19, ptr %3, align 1
  store i32 1, ptr %9, align 4
  br label %160

20:                                               ; preds = %2
  %21 = load ptr, ptr %4, align 8
  %22 = getelementptr inbounds nuw %struct.SDL_VideoDevice, ptr %21, i32 0, i32 130
  %23 = load ptr, ptr %22, align 8
  %24 = getelementptr inbounds nuw %struct.SDL_EGL_VideoData, ptr %23, i32 0, i32 30
  %25 = load ptr, ptr %24, align 8
  %26 = icmp ne ptr %25, null
  br i1 %26, label %29, label %27

27:                                               ; preds = %20
  %28 = call zeroext i1 (ptr, ...) @SDL_SetError_REAL(ptr noundef @.str.12)
  store i1 %28, ptr %3, align 1
  store i32 1, ptr %9, align 4
  br label %160

29:                                               ; preds = %20
  %30 = load ptr, ptr %4, align 8
  %31 = getelementptr inbounds nuw %struct.SDL_VideoDevice, ptr %30, i32 0, i32 130
  %32 = load ptr, ptr %31, align 8
  %33 = getelementptr inbounds nuw %struct.SDL_EGL_VideoData, ptr %32, i32 0, i32 32
  %34 = load ptr, ptr %33, align 8
  %35 = icmp ne ptr %34, null
  br i1 %35, label %38, label %36

36:                                               ; preds = %29
  %37 = call zeroext i1 (ptr, ...) @SDL_SetError_REAL(ptr noundef @.str.13)
  store i1 %37, ptr %3, align 1
  store i32 1, ptr %9, align 4
  br label %160

38:                                               ; preds = %29
  %39 = load ptr, ptr %4, align 8
  %40 = getelementptr inbounds nuw %struct.SDL_VideoDevice, ptr %39, i32 0, i32 130
  %41 = load ptr, ptr %40, align 8
  %42 = getelementptr inbounds nuw %struct.SDL_EGL_VideoData, ptr %41, i32 0, i32 30
  %43 = load ptr, ptr %42, align 8
  %44 = getelementptr inbounds [8 x ptr], ptr %6, i64 0, i64 0
  %45 = call i32 %43(i32 noundef 8, ptr noundef %44, ptr noundef %7)
  %46 = icmp ne i32 %45, 1
  br i1 %46, label %47, label %49

47:                                               ; preds = %38
  %48 = call zeroext i1 (ptr, ...) @SDL_SetError_REAL(ptr noundef @.str.14)
  store i1 %48, ptr %3, align 1
  store i32 1, ptr %9, align 4
  br label %160

49:                                               ; preds = %38
  %50 = call ptr @SDL_GetHint_REAL(ptr noundef @.str.15)
  store ptr %50, ptr %8, align 8
  %51 = load ptr, ptr %8, align 8
  %52 = icmp ne ptr %51, null
  br i1 %52, label %53, label %100

53:                                               ; preds = %49
  %54 = load ptr, ptr %8, align 8
  %55 = call i32 @SDL_atoi_REAL(ptr noundef %54)
  store i32 %55, ptr %5, align 4
  %56 = load i32, ptr %5, align 4
  %57 = load i32, ptr %7, align 4
  %58 = icmp sge i32 %56, %57
  br i1 %58, label %59, label %61

59:                                               ; preds = %53
  %60 = call zeroext i1 (ptr, ...) @SDL_SetError_REAL(ptr noundef @.str.16)
  store i1 %60, ptr %3, align 1
  store i32 1, ptr %9, align 4
  br label %160

61:                                               ; preds = %53
  %62 = load ptr, ptr %4, align 8
  %63 = getelementptr inbounds nuw %struct.SDL_VideoDevice, ptr %62, i32 0, i32 130
  %64 = load ptr, ptr %63, align 8
  %65 = getelementptr inbounds nuw %struct.SDL_EGL_VideoData, ptr %64, i32 0, i32 32
  %66 = load ptr, ptr %65, align 8
  %67 = load i32, ptr %5, align 4
  %68 = sext i32 %67 to i64
  %69 = getelementptr inbounds [8 x ptr], ptr %6, i64 0, i64 %68
  %70 = load ptr, ptr %69, align 8
  %71 = call ptr %66(i32 noundef 12607, ptr noundef %70, ptr noundef null)
  %72 = load ptr, ptr %4, align 8
  %73 = getelementptr inbounds nuw %struct.SDL_VideoDevice, ptr %72, i32 0, i32 130
  %74 = load ptr, ptr %73, align 8
  %75 = getelementptr inbounds nuw %struct.SDL_EGL_VideoData, ptr %74, i32 0, i32 2
  store ptr %71, ptr %75, align 8
  %76 = load ptr, ptr %4, align 8
  %77 = getelementptr inbounds nuw %struct.SDL_VideoDevice, ptr %76, i32 0, i32 130
  %78 = load ptr, ptr %77, align 8
  %79 = getelementptr inbounds nuw %struct.SDL_EGL_VideoData, ptr %78, i32 0, i32 2
  %80 = load ptr, ptr %79, align 8
  %81 = icmp eq ptr %80, null
  br i1 %81, label %82, label %84

82:                                               ; preds = %61
  %83 = call zeroext i1 (ptr, ...) @SDL_SetError_REAL(ptr noundef @.str.17)
  store i1 %83, ptr %3, align 1
  store i32 1, ptr %9, align 4
  br label %160

84:                                               ; preds = %61
  %85 = load ptr, ptr %4, align 8
  %86 = getelementptr inbounds nuw %struct.SDL_VideoDevice, ptr %85, i32 0, i32 130
  %87 = load ptr, ptr %86, align 8
  %88 = getelementptr inbounds nuw %struct.SDL_EGL_VideoData, ptr %87, i32 0, i32 12
  %89 = load ptr, ptr %88, align 8
  %90 = load ptr, ptr %4, align 8
  %91 = getelementptr inbounds nuw %struct.SDL_VideoDevice, ptr %90, i32 0, i32 130
  %92 = load ptr, ptr %91, align 8
  %93 = getelementptr inbounds nuw %struct.SDL_EGL_VideoData, ptr %92, i32 0, i32 2
  %94 = load ptr, ptr %93, align 8
  %95 = call i32 %89(ptr noundef %94, ptr noundef null, ptr noundef null)
  %96 = icmp ne i32 %95, 1
  br i1 %96, label %97, label %99

97:                                               ; preds = %84
  %98 = call zeroext i1 (ptr, ...) @SDL_SetError_REAL(ptr noundef @.str.10)
  store i1 %98, ptr %3, align 1
  store i32 1, ptr %9, align 4
  br label %160

99:                                               ; preds = %84
  br label %154

100:                                              ; preds = %49
  call void @llvm.lifetime.start.p0(i64 4, ptr %10) #5
  call void @llvm.lifetime.start.p0(i64 1, ptr %11) #5
  store i8 0, ptr %11, align 1
  call void @llvm.lifetime.start.p0(i64 8, ptr %12) #5
  store i32 0, ptr %10, align 4
  br label %101

101:                                              ; preds = %142, %100
  %102 = load i32, ptr %10, align 4
  %103 = load i32, ptr %7, align 4
  %104 = icmp slt i32 %102, %103
  br i1 %104, label %105, label %145

105:                                              ; preds = %101
  %106 = load ptr, ptr %4, align 8
  %107 = getelementptr inbounds nuw %struct.SDL_VideoDevice, ptr %106, i32 0, i32 130
  %108 = load ptr, ptr %107, align 8
  %109 = getelementptr inbounds nuw %struct.SDL_EGL_VideoData, ptr %108, i32 0, i32 32
  %110 = load ptr, ptr %109, align 8
  %111 = load i32, ptr %10, align 4
  %112 = sext i32 %111 to i64
  %113 = getelementptr inbounds [8 x ptr], ptr %6, i64 0, i64 %112
  %114 = load ptr, ptr %113, align 8
  %115 = call ptr %110(i32 noundef 12607, ptr noundef %114, ptr noundef null)
  store ptr %115, ptr %12, align 8
  %116 = load ptr, ptr %12, align 8
  %117 = icmp eq ptr %116, null
  br i1 %117, label %118, label %119

118:                                              ; preds = %105
  br label %142

119:                                              ; preds = %105
  %120 = load ptr, ptr %4, align 8
  %121 = getelementptr inbounds nuw %struct.SDL_VideoDevice, ptr %120, i32 0, i32 130
  %122 = load ptr, ptr %121, align 8
  %123 = getelementptr inbounds nuw %struct.SDL_EGL_VideoData, ptr %122, i32 0, i32 12
  %124 = load ptr, ptr %123, align 8
  %125 = load ptr, ptr %12, align 8
  %126 = call i32 %124(ptr noundef %125, ptr noundef null, ptr noundef null)
  %127 = icmp ne i32 %126, 1
  br i1 %127, label %128, label %136

128:                                              ; preds = %119
  %129 = load ptr, ptr %4, align 8
  %130 = getelementptr inbounds nuw %struct.SDL_VideoDevice, ptr %129, i32 0, i32 130
  %131 = load ptr, ptr %130, align 8
  %132 = getelementptr inbounds nuw %struct.SDL_EGL_VideoData, ptr %131, i32 0, i32 13
  %133 = load ptr, ptr %132, align 8
  %134 = load ptr, ptr %12, align 8
  %135 = call i32 %133(ptr noundef %134)
  br label %142

136:                                              ; preds = %119
  %137 = load ptr, ptr %12, align 8
  %138 = load ptr, ptr %4, align 8
  %139 = getelementptr inbounds nuw %struct.SDL_VideoDevice, ptr %138, i32 0, i32 130
  %140 = load ptr, ptr %139, align 8
  %141 = getelementptr inbounds nuw %struct.SDL_EGL_VideoData, ptr %140, i32 0, i32 2
  store ptr %137, ptr %141, align 8
  store i8 1, ptr %11, align 1
  br label %145

142:                                              ; preds = %128, %118
  %143 = load i32, ptr %10, align 4
  %144 = add nsw i32 %143, 1
  store i32 %144, ptr %10, align 4
  br label %101, !llvm.loop !8

145:                                              ; preds = %136, %101
  %146 = load i8, ptr %11, align 1, !range !6, !noundef !7
  %147 = trunc i8 %146 to i1
  br i1 %147, label %150, label %148

148:                                              ; preds = %145
  %149 = call zeroext i1 (ptr, ...) @SDL_SetError_REAL(ptr noundef @.str.18)
  store i1 %149, ptr %3, align 1
  store i32 1, ptr %9, align 4
  br label %151

150:                                              ; preds = %145
  store i32 0, ptr %9, align 4
  br label %151

151:                                              ; preds = %150, %148
  call void @llvm.lifetime.end.p0(i64 8, ptr %12) #5
  call void @llvm.lifetime.end.p0(i64 1, ptr %11) #5
  call void @llvm.lifetime.end.p0(i64 4, ptr %10) #5
  %152 = load i32, ptr %9, align 4
  switch i32 %152, label %160 [
    i32 0, label %153
  ]

153:                                              ; preds = %151
  br label %154

154:                                              ; preds = %153, %99
  %155 = load ptr, ptr %4, align 8
  call void @SDL_EGL_GetVersion(ptr noundef %155)
  %156 = load ptr, ptr %4, align 8
  %157 = getelementptr inbounds nuw %struct.SDL_VideoDevice, ptr %156, i32 0, i32 130
  %158 = load ptr, ptr %157, align 8
  %159 = getelementptr inbounds nuw %struct.SDL_EGL_VideoData, ptr %158, i32 0, i32 9
  store i8 1, ptr %159, align 4
  store i1 true, ptr %3, align 1
  store i32 1, ptr %9, align 4
  br label %160

160:                                              ; preds = %154, %151, %97, %82, %59, %47, %36, %27, %18
  call void @llvm.lifetime.end.p0(i64 8, ptr %8) #5
  call void @llvm.lifetime.end.p0(i64 4, ptr %7) #5
  call void @llvm.lifetime.end.p0(i64 64, ptr %6) #5
  %161 = load i1, ptr %3, align 1
  ret i1 %161
}