; Function Attrs: nounwind uwtable
define hidden zeroext i1 @SDL_EGL_InitializeOffscreen(ptr noundef readonly captures(none) %0, i32 noundef %1) local_unnamed_addr #0 {
  %3 = alloca i32, align 4
  %4 = alloca i32, align 4
  %5 = alloca [8 x ptr], align 16
  %6 = alloca i32, align 4
  call void @llvm.lifetime.start.p0(i64 64, ptr nonnull %5) #7
  call void @llvm.lifetime.start.p0(i64 4, ptr nonnull %6) #7
  store i32 0, ptr %6, align 4
  %7 = getelementptr inbounds nuw i8, ptr %0, i64 1032
  %8 = load i32, ptr %7, align 8
  %9 = icmp slt i32 %8, 1
  br i1 %9, label %10, label %12

10:                                               ; preds = %2
  %11 = tail call zeroext i1 (ptr, ...) @SDL_SetError_REAL(ptr noundef nonnull @.str.11) #7
  br label %104

12:                                               ; preds = %2
  %13 = getelementptr inbounds nuw i8, ptr %0, i64 1672
  %14 = load ptr, ptr %13, align 8
  %15 = getelementptr inbounds nuw i8, ptr %14, i64 216
  %16 = load ptr, ptr %15, align 8
  %.not = icmp eq ptr %16, null
  br i1 %.not, label %17, label %19

17:                                               ; preds = %12
  %18 = tail call zeroext i1 (ptr, ...) @SDL_SetError_REAL(ptr noundef nonnull @.str.12) #7
  br label %104

19:                                               ; preds = %12
  %20 = getelementptr inbounds nuw i8, ptr %14, i64 232
  %21 = load ptr, ptr %20, align 8
  %.not36 = icmp eq ptr %21, null
  br i1 %.not36, label %22, label %24

22:                                               ; preds = %19
  %23 = tail call zeroext i1 (ptr, ...) @SDL_SetError_REAL(ptr noundef nonnull @.str.13) #7
  br label %104

24:                                               ; preds = %19
  %25 = call i32 %16(i32 noundef 8, ptr noundef nonnull %5, ptr noundef nonnull %6) #7
  %.not37 = icmp eq i32 %25, 1
  br i1 %.not37, label %28, label %26

26:                                               ; preds = %24
  %27 = call zeroext i1 (ptr, ...) @SDL_SetError_REAL(ptr noundef nonnull @.str.14) #7
  br label %104

28:                                               ; preds = %24
  %29 = call ptr @SDL_GetHint_REAL(ptr noundef nonnull @.str.15) #7
  %.not38 = icmp eq ptr %29, null
  br i1 %.not38, label %.preheader, label %32

.preheader:                                       ; preds = %28
  %30 = load i32, ptr %6, align 4
  %31 = icmp sgt i32 %30, 0
  br i1 %31, label %.lr.ph, label %._crit_edge

32:                                               ; preds = %28
  %33 = call i32 @SDL_atoi_REAL(ptr noundef nonnull %29) #7
  %34 = load i32, ptr %6, align 4
  %.not40 = icmp slt i32 %33, %34
  br i1 %.not40, label %37, label %35

35:                                               ; preds = %32
  %36 = call zeroext i1 (ptr, ...) @SDL_SetError_REAL(ptr noundef nonnull @.str.16) #7
  br label %104

37:                                               ; preds = %32
  %38 = load ptr, ptr %13, align 8
  %39 = getelementptr inbounds nuw i8, ptr %38, i64 232
  %40 = load ptr, ptr %39, align 8
  %41 = sext i32 %33 to i64
  %42 = getelementptr inbounds [8 x ptr], ptr %5, i64 0, i64 %41
  %43 = load ptr, ptr %42, align 8
  %44 = call ptr %40(i32 noundef 12607, ptr noundef %43, ptr noundef null) #7
  %45 = load ptr, ptr %13, align 8
  %46 = getelementptr inbounds nuw i8, ptr %45, i64 16
  store ptr %44, ptr %46, align 8
  %47 = load ptr, ptr %13, align 8
  %48 = getelementptr inbounds nuw i8, ptr %47, i64 16
  %49 = load ptr, ptr %48, align 8
  %50 = icmp eq ptr %49, null
  br i1 %50, label %51, label %53

51:                                               ; preds = %37
  %52 = call zeroext i1 (ptr, ...) @SDL_SetError_REAL(ptr noundef nonnull @.str.17) #7
  br label %104

53:                                               ; preds = %37
  %54 = getelementptr inbounds nuw i8, ptr %47, i64 72
  %55 = load ptr, ptr %54, align 8
  %56 = call i32 %55(ptr noundef nonnull %49, ptr noundef null, ptr noundef null) #7
  %.not41 = icmp eq i32 %56, 1
  br i1 %.not41, label %82, label %57

57:                                               ; preds = %53
  %58 = call zeroext i1 (ptr, ...) @SDL_SetError_REAL(ptr noundef nonnull @.str.10) #7
  br label %104

.lr.ph:                                           ; preds = %.preheader, %77
  %indvars.iv = phi i64 [ %indvars.iv.next, %77 ], [ 0, %.preheader ]
  %59 = load ptr, ptr %13, align 8
  %60 = getelementptr inbounds nuw i8, ptr %59, i64 232
  %61 = load ptr, ptr %60, align 8
  %62 = getelementptr inbounds nuw [8 x ptr], ptr %5, i64 0, i64 %indvars.iv
  %63 = load ptr, ptr %62, align 8
  %64 = call ptr %61(i32 noundef 12607, ptr noundef %63, ptr noundef null) #7
  %65 = icmp eq ptr %64, null
  br i1 %65, label %77, label %66

66:                                               ; preds = %.lr.ph
  %67 = load ptr, ptr %13, align 8
  %68 = getelementptr inbounds nuw i8, ptr %67, i64 72
  %69 = load ptr, ptr %68, align 8
  %70 = call i32 %69(ptr noundef nonnull %64, ptr noundef null, ptr noundef null) #7
  %.not39 = icmp eq i32 %70, 1
  %71 = load ptr, ptr %13, align 8
  br i1 %.not39, label %.thread, label %72

72:                                               ; preds = %66
  %73 = getelementptr inbounds nuw i8, ptr %71, i64 80
  %74 = load ptr, ptr %73, align 8
  %75 = call i32 %74(ptr noundef nonnull %64) #7
  br label %77

.thread:                                          ; preds = %66
  %76 = getelementptr inbounds nuw i8, ptr %71, i64 16
  store ptr %64, ptr %76, align 8
  br label %82

77:                                               ; preds = %.lr.ph, %72
  %indvars.iv.next = add nuw nsw i64 %indvars.iv, 1
  %78 = load i32, ptr %6, align 4
  %79 = sext i32 %78 to i64
  %80 = icmp slt i64 %indvars.iv.next, %79
  br i1 %80, label %.lr.ph, label %._crit_edge, !llvm.loop !6

._crit_edge:                                      ; preds = %77, %.preheader
  %81 = call zeroext i1 (ptr, ...) @SDL_SetError_REAL(ptr noundef nonnull @.str.18) #7
  br label %104

82:                                               ; preds = %.thread, %53
  %83 = load ptr, ptr %13, align 8
  %84 = getelementptr inbounds nuw i8, ptr %83, i64 168
  %85 = load ptr, ptr %84, align 8
  %.not.i = icmp eq ptr %85, null
  br i1 %.not.i, label %SDL_EGL_GetVersion.exit, label %86

86:                                               ; preds = %82
  %87 = getelementptr inbounds nuw i8, ptr %83, i64 16
  %88 = load ptr, ptr %87, align 8
  %89 = call ptr %85(ptr noundef %88, i32 noundef 12372) #7
  %.not9.i = icmp eq ptr %89, null
  br i1 %.not9.i, label %SDL_EGL_GetVersion.exit, label %90

90:                                               ; preds = %86
  call void @llvm.lifetime.start.p0(i64 4, ptr nonnull %3) #7
  store i32 0, ptr %3, align 4
  call void @llvm.lifetime.start.p0(i64 4, ptr nonnull %4) #7
  store i32 0, ptr %4, align 4
  %91 = call i32 (ptr, ptr, ...) @SDL_sscanf_REAL(ptr noundef nonnull %89, ptr noundef nonnull @.str.111, ptr noundef nonnull %3, ptr noundef nonnull %4) #7
  %92 = icmp eq i32 %91, 2
  br i1 %92, label %93, label %100

93:                                               ; preds = %90
  %94 = load i32, ptr %3, align 4
  %95 = load ptr, ptr %13, align 8
  %96 = getelementptr inbounds nuw i8, ptr %95, i64 40
  store i32 %94, ptr %96, align 8
  %97 = load i32, ptr %4, align 4
  %98 = load ptr, ptr %13, align 8
  %99 = getelementptr inbounds nuw i8, ptr %98, i64 44
  store i32 %97, ptr %99, align 4
  br label %101

100:                                              ; preds = %90
  call void (i32, ptr, ...) @SDL_LogWarn_REAL(i32 noundef 5, ptr noundef nonnull @.str.112, ptr noundef nonnull %89) #7
  br label %101

101:                                              ; preds = %100, %93
  call void @llvm.lifetime.end.p0(i64 4, ptr nonnull %4) #7
  call void @llvm.lifetime.end.p0(i64 4, ptr nonnull %3) #7
  br label %SDL_EGL_GetVersion.exit

SDL_EGL_GetVersion.exit:                          ; preds = %82, %86, %101
  %102 = load ptr, ptr %13, align 8
  %103 = getelementptr inbounds nuw i8, ptr %102, i64 52
  store i8 1, ptr %103, align 4
  br label %104

104:                                              ; preds = %._crit_edge, %SDL_EGL_GetVersion.exit, %57, %51, %35, %26, %22, %17, %10
  %.0 = phi i1 [ %11, %10 ], [ %27, %26 ], [ %36, %35 ], [ %52, %51 ], [ %58, %57 ], [ true, %SDL_EGL_GetVersion.exit ], [ %81, %._crit_edge ], [ %23, %22 ], [ %18, %17 ]
  call void @llvm.lifetime.end.p0(i64 4, ptr nonnull %6) #7
  call void @llvm.lifetime.end.p0(i64 64, ptr nonnull %5) #7
  ret i1 %.0
}